; Function Attrs: mustprogress uwtable
define dso_local noundef nonnull align 8 dereferenceable(37) ptr @_ZN5vcpkg13XmlSerializer31finish_self_closing_complex_tagEv(ptr noundef nonnull returned align 8 dereferenceable(37) %0) local_unnamed_addr #0 align 2 personality ptr @__gxx_personality_v0 {
  %2 = getelementptr inbounds nuw i8, ptr %0, i64 36
  %3 = load i8, ptr %2, align 4, !tbaa !12, !range !16, !noundef !17
  %4 = trunc nuw i8 %3 to i1
  br i1 %4, label %5, label %_ZN5vcpkg13XmlSerializer19emit_pending_indentEv.exit

5:                                                ; preds = %1
  store i8 0, ptr %2, align 4, !tbaa !12
  %6 = getelementptr inbounds nuw i8, ptr %0, i64 32
  %7 = load i32, ptr %6, align 8, !tbaa !18
  %8 = sext i32 %7 to i64
  %9 = getelementptr inbounds nuw i8, ptr %0, i64 8
  %10 = load i64, ptr %9, align 8, !tbaa !4
  %11 = tail call noundef nonnull align 8 dereferenceable(32) ptr @_ZNSt7__cxx1112basic_stringIcSt11char_traitsIcESaIcEE14_M_replace_auxEmmmc(ptr noundef nonnull align 8 dereferenceable(37) %0, i64 noundef %10, i64 noundef 0, i64 noundef %8, i8 noundef signext 32)
  br label %_ZN5vcpkg13XmlSerializer19emit_pending_indentEv.exit

_ZN5vcpkg13XmlSerializer19emit_pending_indentEv.exit: ; preds = %1, %5
  %12 = getelementptr inbounds nuw i8, ptr %0, i64 8
  %13 = load i64, ptr %12, align 8, !tbaa !4
  %14 = and i64 %13, -2
  %15 = icmp eq i64 %14, 4611686018427387902
  br i1 %15, label %16, label %_ZNSt7__cxx1112basic_stringIcSt11char_traitsIcESaIcEE6appendEPKc.exit

16:                                               ; preds = %_ZN5vcpkg13XmlSerializer19emit_pending_indentEv.exit
  tail call void @_ZSt20__throw_length_errorPKc(ptr noundef nonnull @.str.12) #6
  unreachable

_ZNSt7__cxx1112basic_stringIcSt11char_traitsIcESaIcEE6appendEPKc.exit: ; preds = %_ZN5vcpkg13XmlSerializer19emit_pending_indentEv.exit
  %17 = tail call noundef nonnull align 8 dereferenceable(32) ptr @_ZNSt7__cxx1112basic_stringIcSt11char_traitsIcESaIcEE9_M_appendEPKcm(ptr noundef nonnull align 8 dereferenceable(32) %0, ptr noundef nonnull @.str.2, i64 noundef 2)
  %18 = getelementptr inbounds nuw i8, ptr %0, i64 32
  %19 = load i32, ptr %18, align 8, !tbaa !18
  %20 = add nsw i32 %19, -2
  store i32 %20, ptr %18, align 8, !tbaa !18
  ret ptr %0
}